; ModuleID = '17/289.c'
source_filename = "17/289.c"
target datalayout = "e-m:e-p270:32:32-p271:32:32-p272:64:64-i64:64-f80:128-n8:16:32:64-S128"
target triple = "x86_64-pc-linux-gnu"

@.str = private unnamed_addr constant [3 x i8] c"%s\00", align 1
@.str.1 = private unnamed_addr constant [7 x i8] c"%s\0A%s\0A\00", align 1

; Function Attrs: noinline nounwind uwtable
define dso_local i32 @main() #0 {
  %1 = alloca i32, align 4
  %2 = alloca i32, align 4
  %3 = alloca i32, align 4
  %4 = alloca i32, align 4
  %5 = alloca i32, align 4
  %6 = alloca i32, align 4
  %7 = alloca [101 x i8], align 16
  %8 = alloca [101 x i8], align 16
  %9 = alloca [101 x i8], align 16
  %10 = alloca [101 x i32], align 16
  %11 = alloca i32, align 4
  %12 = alloca i32, align 4
  %13 = alloca i32, align 4
  store i32 0, i32* %1, align 4
  store i32 1, i32* %6, align 4
  br label %14

14:                                               ; preds = %158, %0
  store i32 0, i32* %12, align 4
  store i32 0, i32* %13, align 4
  %15 = getelementptr inbounds [101 x i8], [101 x i8]* %7, i64 0, i64 0
  %16 = call i32 (i8*, ...) @__isoc99_scanf(i8* getelementptr inbounds ([3 x i8], [3 x i8]* @.str, i64 0, i64 0), i8* %15)
  %17 = icmp ne i32 %16, -1
  br i1 %17, label %18, label %156

18:                                               ; preds = %14
  store i32 1, i32* %12, align 4
  %19 = getelementptr inbounds [101 x i8], [101 x i8]* %7, i64 0, i64 0
  %20 = call i64 @strlen(i8* %19) #4
  %21 = trunc i64 %20 to i32
  store i32 %21, i32* %11, align 4
  %22 = getelementptr inbounds [101 x i8], [101 x i8]* %8, i64 0, i64 0
  %23 = getelementptr inbounds [101 x i8], [101 x i8]* %7, i64 0, i64 0
  %24 = call i8* @strcpy(i8* %22, i8* %23) #5
  store i32 0, i32* %3, align 4
  br label %25

25:                                               ; preds = %119, %18
  %26 = load i32, i32* %3, align 4
  %27 = load i32, i32* %11, align 4
  %28 = icmp slt i32 %26, %27
  br i1 %28, label %29, label %122

29:                                               ; preds = %25
  %30 = load i32, i32* %13, align 4
  %31 = icmp eq i32 %30, 0
  br i1 %31, label %32, label %56

32:                                               ; preds = %29
  %33 = load i32, i32* %3, align 4
  %34 = sext i32 %33 to i64
  %35 = getelementptr inbounds [101 x i8], [101 x i8]* %7, i64 0, i64 %34
  %36 = load i8, i8* %35, align 1
  %37 = sext i8 %36 to i32
  %38 = icmp eq i32 %37, 40
  br i1 %38, label %46, label %39

39:                                               ; preds = %32
  %40 = load i32, i32* %3, align 4
  %41 = sext i32 %40 to i64
  %42 = getelementptr inbounds [101 x i8], [101 x i8]* %7, i64 0, i64 %41
  %43 = load i8, i8* %42, align 1
  %44 = sext i8 %43 to i32
  %45 = icmp eq i32 %44, 41
  br i1 %45, label %46, label %56

46:                                               ; preds = %39, %32
  %47 = load i32, i32* %3, align 4
  %48 = sext i32 %47 to i64
  %49 = getelementptr inbounds [101 x i8], [101 x i8]* %7, i64 0, i64 %48
  %50 = load i8, i8* %49, align 1
  %51 = getelementptr inbounds [101 x i8], [101 x i8]* %9, i64 0, i64 0
  store i8 %50, i8* %51, align 16
  %52 = load i32, i32* %3, align 4
  %53 = getelementptr inbounds [101 x i32], [101 x i32]* %10, i64 0, i64 0
  store i32 %52, i32* %53, align 16
  %54 = load i32, i32* %13, align 4
  %55 = add nsw i32 %54, 1
  store i32 %55, i32* %13, align 4
  br label %118

56:                                               ; preds = %39, %29
  %57 = load i32, i32* %3, align 4
  %58 = sext i32 %57 to i64
  %59 = getelementptr inbounds [101 x i8], [101 x i8]* %7, i64 0, i64 %58
  %60 = load i8, i8* %59, align 1
  %61 = sext i8 %60 to i32
  %62 = icmp eq i32 %61, 40
  br i1 %62, label %70, label %63

63:                                               ; preds = %56
  %64 = load i32, i32* %3, align 4
  %65 = sext i32 %64 to i64
  %66 = getelementptr inbounds [101 x i8], [101 x i8]* %7, i64 0, i64 %65
  %67 = load i8, i8* %66, align 1
  %68 = sext i8 %67 to i32
  %69 = icmp eq i32 %68, 41
  br i1 %69, label %70, label %113

70:                                               ; preds = %63, %56
  %71 = load i32, i32* %13, align 4
  %72 = sub nsw i32 %71, 1
  %73 = sext i32 %72 to i64
  %74 = getelementptr inbounds [101 x i8], [101 x i8]* %9, i64 0, i64 %73
  %75 = load i8, i8* %74, align 1
  %76 = sext i8 %75 to i32
  %77 = icmp eq i32 %76, 40
  br i1 %77, label %78, label %98

78:                                               ; preds = %70
  %79 = load i32, i32* %3, align 4
  %80 = sext i32 %79 to i64
  %81 = getelementptr inbounds [101 x i8], [101 x i8]* %7, i64 0, i64 %80
  %82 = load i8, i8* %81, align 1
  %83 = sext i8 %82 to i32
  %84 = icmp eq i32 %83, 41
  br i1 %84, label %85, label %98

85:                                               ; preds = %78
  %86 = load i32, i32* %13, align 4
  %87 = sub nsw i32 %86, 1
  %88 = sext i32 %87 to i64
  %89 = getelementptr inbounds [101 x i32], [101 x i32]* %10, i64 0, i64 %88
  %90 = load i32, i32* %89, align 4
  %91 = sext i32 %90 to i64
  %92 = getelementptr inbounds [101 x i8], [101 x i8]* %7, i64 0, i64 %91
  store i8 32, i8* %92, align 1
  %93 = load i32, i32* %3, align 4
  %94 = sext i32 %93 to i64
  %95 = getelementptr inbounds [101 x i8], [101 x i8]* %7, i64 0, i64 %94
  store i8 32, i8* %95, align 1
  %96 = load i32, i32* %13, align 4
  %97 = sub nsw i32 %96, 1
  store i32 %97, i32* %13, align 4
  br label %112

98:                                               ; preds = %78, %70
  %99 = load i32, i32* %3, align 4
  %100 = sext i32 %99 to i64
  %101 = getelementptr inbounds [101 x i8], [101 x i8]* %7, i64 0, i64 %100
  %102 = load i8, i8* %101, align 1
  %103 = load i32, i32* %13, align 4
  %104 = sext i32 %103 to i64
  %105 = getelementptr inbounds [101 x i8], [101 x i8]* %9, i64 0, i64 %104
  store i8 %102, i8* %105, align 1
  %106 = load i32, i32* %3, align 4
  %107 = load i32, i32* %13, align 4
  %108 = sext i32 %107 to i64
  %109 = getelementptr inbounds [101 x i32], [101 x i32]* %10, i64 0, i64 %108
  store i32 %106, i32* %109, align 4
  %110 = load i32, i32* %13, align 4
  %111 = add nsw i32 %110, 1
  store i32 %111, i32* %13, align 4
  br label %112

112:                                              ; preds = %98, %85
  br label %117

113:                                              ; preds = %63
  %114 = load i32, i32* %3, align 4
  %115 = sext i32 %114 to i64
  %116 = getelementptr inbounds [101 x i8], [101 x i8]* %7, i64 0, i64 %115
  store i8 32, i8* %116, align 1
  br label %117

117:                                              ; preds = %113, %112
  br label %118

118:                                              ; preds = %117, %46
  br label %119

119:                                              ; preds = %118
  %120 = load i32, i32* %3, align 4
  %121 = add nsw i32 %120, 1
  store i32 %121, i32* %3, align 4
  br label %25

122:                                              ; preds = %25
  store i32 0, i32* %3, align 4
  br label %123

123:                                              ; preds = %149, %122
  %124 = load i32, i32* %3, align 4
  %125 = load i32, i32* %13, align 4
  %126 = icmp slt i32 %124, %125
  br i1 %126, label %127, label %152

127:                                              ; preds = %123
  %128 = load i32, i32* %3, align 4
  %129 = sext i32 %128 to i64
  %130 = getelementptr inbounds [101 x i8], [101 x i8]* %9, i64 0, i64 %129
  %131 = load i8, i8* %130, align 1
  %132 = sext i8 %131 to i32
  %133 = icmp eq i32 %132, 40
  br i1 %133, label %134, label %141

134:                                              ; preds = %127
  %135 = load i32, i32* %3, align 4
  %136 = sext i32 %135 to i64
  %137 = getelementptr inbounds [101 x i32], [101 x i32]* %10, i64 0, i64 %136
  %138 = load i32, i32* %137, align 4
  %139 = sext i32 %138 to i64
  %140 = getelementptr inbounds [101 x i8], [101 x i8]* %7, i64 0, i64 %139
  store i8 36, i8* %140, align 1
  br label %148

141:                                              ; preds = %127
  %142 = load i32, i32* %3, align 4
  %143 = sext i32 %142 to i64
  %144 = getelementptr inbounds [101 x i32], [101 x i32]* %10, i64 0, i64 %143
  %145 = load i32, i32* %144, align 4
  %146 = sext i32 %145 to i64
  %147 = getelementptr inbounds [101 x i8], [101 x i8]* %7, i64 0, i64 %146
  store i8 63, i8* %147, align 1
  br label %148

148:                                              ; preds = %141, %134
  br label %149

149:                                              ; preds = %148
  %150 = load i32, i32* %3, align 4
  %151 = add nsw i32 %150, 1
  store i32 %151, i32* %3, align 4
  br label %123

152:                                              ; preds = %123
  %153 = getelementptr inbounds [101 x i8], [101 x i8]* %8, i64 0, i64 0
  %154 = getelementptr inbounds [101 x i8], [101 x i8]* %7, i64 0, i64 0
  %155 = call i32 (i8*, ...) @printf(i8* getelementptr inbounds ([7 x i8], [7 x i8]* @.str.1, i64 0, i64 0), i8* %153, i8* %154)
  br label %157

156:                                              ; preds = %14
  br label %161

157:                                              ; preds = %152
  br label %158

158:                                              ; preds = %157
  %159 = load i32, i32* %6, align 4
  %160 = icmp ne i32 %159, 0
  br i1 %160, label %14, label %161

161:                                              ; preds = %158, %156
  ret i32 0
}

declare dso_local i32 @__isoc99_scanf(i8*, ...) #1

; Function Attrs: nounwind readonly
declare dso_local i64 @strlen(i8*) #2

; Function Attrs: nounwind
declare dso_local i8* @strcpy(i8*, i8*) #3

declare dso_local i32 @printf(i8*, ...) #1


!llvm.module.flags = !{!0}
!llvm.ident = !{!1}

!0 = !{i32 1, !"wchar_size", i32 4}
!1 = !{!"clang version 10.0.0-4ubuntu1 "}
